target datalayout = "e-m:e-p270:32:32-p271:32:32-p272:64:64-i64:64-i128:128-f80:128-n8:16:32:64-S128"
target triple = "x86_64-pc-linux-gnu"

%struct.gfxinfo = type { i32, i32, i32, i32 }

@.str.33 = private unnamed_addr constant [14 x i8] c"#define %s %d\00", align 1
@.str.34 = private unnamed_addr constant [6 x i8] c"width\00", align 1
@.str.35 = private unnamed_addr constant [7 x i8] c"height\00", align 1

; Function Attrs: nounwind uwtable
define internal i32 @php_get_xbm(ptr noundef %0, ptr noundef %1) #0 {
  %3 = alloca i32, align 4
  %4 = alloca ptr, align 8
  %5 = alloca ptr, align 8
  %6 = alloca ptr, align 8
  %7 = alloca ptr, align 8
  %8 = alloca ptr, align 8
  %9 = alloca i32, align 4
  %10 = alloca i32, align 4
  %11 = alloca i32, align 4
  store ptr %0, ptr %4, align 8
  store ptr %1, ptr %5, align 8
  store i32 0, ptr %10, align 4
  store i32 0, ptr %11, align 4
  %12 = load ptr, ptr %5, align 8
  %13 = icmp ne ptr %12, null
  br i1 %13, label %14, label %16

14:                                               ; preds = %2
  %15 = load ptr, ptr %5, align 8
  store ptr null, ptr %15, align 8
  br label %16

16:                                               ; preds = %14, %2
  %17 = load ptr, ptr %4, align 8
  %18 = call i32 @_php_stream_seek(ptr noundef %17, i64 noundef 0, i32 noundef 0)
  %19 = icmp ne i32 %18, 0
  br i1 %19, label %20, label %21

20:                                               ; preds = %16
  store i32 0, ptr %3, align 4
  br label %95

21:                                               ; preds = %16
  br label %22

22:                                               ; preds = %65, %21
  %23 = load ptr, ptr %4, align 8
  %24 = call ptr @_php_stream_get_line(ptr noundef %23, ptr noundef null, i64 noundef 0, ptr noundef null)
  store ptr %24, ptr %6, align 8
  %25 = icmp ne ptr %24, null
  br i1 %25, label %26, label %68

26:                                               ; preds = %22
  %27 = load ptr, ptr %6, align 8
  %28 = call noalias ptr @_estrdup(ptr noundef %27)
  store ptr %28, ptr %7, align 8
  %29 = load ptr, ptr %6, align 8
  %30 = load ptr, ptr %7, align 8
  %31 = call i32 (ptr, ptr, ...) @__isoc99_sscanf(ptr noundef %29, ptr noundef @.str.33, ptr noundef %30, ptr noundef %9) #11
  %32 = icmp eq i32 %31, 2
  br i1 %32, label %33, label %65

33:                                               ; preds = %26
  %34 = load ptr, ptr %7, align 8
  %35 = call ptr @strrchr(ptr noundef %34, i32 noundef 95) #12
  store ptr %35, ptr %8, align 8
  %36 = icmp ne ptr %35, null
  br i1 %36, label %39, label %37

37:                                               ; preds = %33
  %38 = load ptr, ptr %7, align 8
  store ptr %38, ptr %8, align 8
  br label %42

39:                                               ; preds = %33
  %40 = load ptr, ptr %8, align 8
  %41 = getelementptr inbounds i8, ptr %40, i32 1
  store ptr %41, ptr %8, align 8
  br label %42

42:                                               ; preds = %39, %37
  %43 = load ptr, ptr %8, align 8
  %44 = call i32 @strcmp(ptr noundef @.str.34, ptr noundef %43) #12
  %45 = icmp ne i32 %44, 0
  br i1 %45, label %53, label %46

46:                                               ; preds = %42
  %47 = load i32, ptr %9, align 4
  store i32 %47, ptr %10, align 4
  %48 = load i32, ptr %11, align 4
  %49 = icmp ne i32 %48, 0
  br i1 %49, label %50, label %52

50:                                               ; preds = %46
  %51 = load ptr, ptr %7, align 8
  call void @_efree(ptr noundef %51)
  br label %68

52:                                               ; preds = %46
  br label %53

53:                                               ; preds = %52, %42
  %54 = load ptr, ptr %8, align 8
  %55 = call i32 @strcmp(ptr noundef @.str.35, ptr noundef %54) #12
  %56 = icmp ne i32 %55, 0
  br i1 %56, label %64, label %57

57:                                               ; preds = %53
  %58 = load i32, ptr %9, align 4
  store i32 %58, ptr %11, align 4
  %59 = load i32, ptr %10, align 4
  %60 = icmp ne i32 %59, 0
  br i1 %60, label %61, label %63

61:                                               ; preds = %57
  %62 = load ptr, ptr %7, align 8
  call void @_efree(ptr noundef %62)
  br label %68

63:                                               ; preds = %57
  br label %64

64:                                               ; preds = %63, %53
  br label %65

65:                                               ; preds = %64, %26
  %66 = load ptr, ptr %6, align 8
  call void @_efree(ptr noundef %66)
  %67 = load ptr, ptr %7, align 8
  call void @_efree(ptr noundef %67)
  br label %22

68:                                               ; preds = %61, %50, %22
  %69 = load ptr, ptr %6, align 8
  %70 = icmp ne ptr %69, null
  br i1 %70, label %71, label %73

71:                                               ; preds = %68
  %72 = load ptr, ptr %6, align 8
  call void @_efree(ptr noundef %72)
  br label %73

73:                                               ; preds = %71, %68
  %74 = load i32, ptr %10, align 4
  %75 = icmp ne i32 %74, 0
  br i1 %75, label %76, label %94

76:                                               ; preds = %73
  %77 = load i32, ptr %11, align 4
  %78 = icmp ne i32 %77, 0
  br i1 %78, label %79, label %94

79:                                               ; preds = %76
  %80 = load ptr, ptr %5, align 8
  %81 = icmp ne ptr %80, null
  br i1 %81, label %82, label %93

82:                                               ; preds = %79
  %83 = call noalias ptr @_ecalloc(i64 noundef 1, i64 noundef 16) #14
  %84 = load ptr, ptr %5, align 8
  store ptr %83, ptr %84, align 8
  %85 = load i32, ptr %10, align 4
  %86 = load ptr, ptr %5, align 8
  %87 = load ptr, ptr %86, align 8
  %88 = getelementptr inbounds %struct.gfxinfo, ptr %87, i32 0, i32 0
  store i32 %85, ptr %88, align 4
  %89 = load i32, ptr %11, align 4
  %90 = load ptr, ptr %5, align 8
  %91 = load ptr, ptr %90, align 8
  %92 = getelementptr inbounds %struct.gfxinfo, ptr %91, i32 0, i32 1
  store i32 %89, ptr %92, align 4
  br label %93

93:                                               ; preds = %82, %79
  store i32 16, ptr %3, align 4
  br label %95

94:                                               ; preds = %76, %73
  store i32 0, ptr %3, align 4
  br label %95

95:                                               ; preds = %94, %93, %20
  %96 = load i32, ptr %3, align 4
  ret i32 %96
}