; Function Attrs: nounwind uwtable
define internal fastcc i32 @php_get_xbm(ptr noundef %0, ptr noundef writeonly %1) unnamed_addr #0 {
  %3 = alloca i32, align 4
  %.not = icmp eq ptr %1, null
  br i1 %.not, label %5, label %4

4:                                                ; preds = %2
  store ptr null, ptr %1, align 8
  br label %5

5:                                                ; preds = %4, %2
  %6 = tail call i32 @_php_stream_seek(ptr noundef %0, i64 noundef 0, i32 noundef 0) #13
  %.not39 = icmp eq i32 %6, 0
  br i1 %.not39, label %.preheader, label %.loopexit.thread

.preheader:                                       ; preds = %5
  %7 = tail call ptr @_php_stream_get_line(ptr noundef %0, ptr noundef null, i64 noundef 0, ptr noundef null) #13
  %.not4065 = icmp eq ptr %7, null
  br i1 %.not4065, label %.loopexit.thread, label %.lr.ph

.lr.ph:                                           ; preds = %.preheader, %22
  %8 = phi ptr [ %23, %22 ], [ %7, %.preheader ]
  %.067 = phi i32 [ %.1, %22 ], [ 0, %.preheader ]
  %.02966 = phi i32 [ %.231, %22 ], [ 0, %.preheader ]
  %9 = call noalias ptr @_estrdup(ptr noundef nonnull %8) #13
  %10 = call i32 (ptr, ptr, ...) @__isoc99_sscanf(ptr noundef nonnull %8, ptr noundef nonnull @.str.33, ptr noundef %9, ptr noundef nonnull %3) #13
  %11 = icmp eq i32 %10, 2
  br i1 %11, label %12, label %22

12:                                               ; preds = %.lr.ph
  %13 = call ptr @strrchr(ptr noundef nonnull dereferenceable(1) %9, i32 noundef 95) #14
  %.not41 = icmp eq ptr %13, null
  %14 = getelementptr inbounds i8, ptr %13, i64 1
  %.032 = select i1 %.not41, ptr %9, ptr %14
  %15 = call i32 @strcmp(ptr noundef nonnull dereferenceable(6) @.str.34, ptr noundef nonnull dereferenceable(1) %.032) #14
  %.not42 = icmp eq i32 %15, 0
  br i1 %.not42, label %16, label %18

16:                                               ; preds = %12
  %17 = load i32, ptr %3, align 4
  %.not43 = icmp eq i32 %.067, 0
  br i1 %.not43, label %18, label %24

18:                                               ; preds = %16, %12
  %.130 = phi i32 [ %.02966, %12 ], [ %17, %16 ]
  %19 = call i32 @strcmp(ptr noundef nonnull dereferenceable(7) @.str.35, ptr noundef nonnull dereferenceable(1) %.032) #14
  %.not44 = icmp eq i32 %19, 0
  br i1 %.not44, label %20, label %22

20:                                               ; preds = %18
  %21 = load i32, ptr %3, align 4
  %.not45 = icmp eq i32 %.130, 0
  br i1 %.not45, label %22, label %24

22:                                               ; preds = %18, %20, %.lr.ph
  %.231 = phi i32 [ %.130, %18 ], [ 0, %20 ], [ %.02966, %.lr.ph ]
  %.1 = phi i32 [ %.067, %18 ], [ %21, %20 ], [ %.067, %.lr.ph ]
  call void @_efree(ptr noundef nonnull %8) #13
  call void @_efree(ptr noundef %9) #13
  %23 = call ptr @_php_stream_get_line(ptr noundef %0, ptr noundef null, i64 noundef 0, ptr noundef null) #13
  %.not40 = icmp eq ptr %23, null
  br i1 %.not40, label %.loopexit, label %.lr.ph

24:                                               ; preds = %20, %16
  %.3.ph = phi i32 [ %17, %16 ], [ %.130, %20 ]
  %.2.ph = phi i32 [ %.067, %16 ], [ %21, %20 ]
  call void @_efree(ptr noundef %9) #13
  call void @_efree(ptr noundef nonnull %8) #13
  br label %.loopexit

.loopexit:                                        ; preds = %22, %24
  %.251 = phi i32 [ %.2.ph, %24 ], [ %.1, %22 ]
  %.349 = phi i32 [ %.3.ph, %24 ], [ %.231, %22 ]
  %25 = icmp eq i32 %.349, 0
  %26 = icmp eq i32 %.251, 0
  %or.cond.not54 = select i1 %25, i1 true, i1 %26
  %brmerge = or i1 %.not, %or.cond.not54
  %.mux = select i1 %or.cond.not54, i32 0, i32 16
  br i1 %brmerge, label %.loopexit.thread, label %27

27:                                               ; preds = %.loopexit
  %28 = call noalias dereferenceable_or_null(16) ptr @_ecalloc(i64 noundef 1, i64 noundef 16) #16
  store ptr %28, ptr %1, align 8
  store i32 %.349, ptr %28, align 4
  %29 = getelementptr inbounds i8, ptr %28, i64 4
  store i32 %.251, ptr %29, align 4
  br label %.loopexit.thread

.loopexit.thread:                                 ; preds = %.preheader, %.loopexit, %27, %5
  %.033 = phi i32 [ 0, %5 ], [ 16, %27 ], [ %.mux, %.loopexit ], [ 0, %.preheader ]
  ret i32 %.033
}